target datalayout = "e-m:e-p270:32:32-p271:32:32-p272:64:64-i64:64-i128:128-f80:128-n8:16:32:64-S128"
target triple = "x86_64-pc-linux-gnu"

%struct.bn_mont_ctx_st = type { i32, %struct.bignum_st, %struct.bignum_st, %struct.bignum_st, [2 x i64], i32 }
%struct.bignum_st = type { ptr, i32, i32, i32, i32 }

; Function Attrs: nounwind uwtable
define i32 @BN_MONT_CTX_set(ptr noundef %0, ptr noundef %1, ptr noundef %2) #0 {
  %4 = alloca i32, align 4
  %5 = alloca ptr, align 8
  %6 = alloca ptr, align 8
  %7 = alloca ptr, align 8
  %8 = alloca i32, align 4
  %9 = alloca i32, align 4
  %10 = alloca ptr, align 8
  %11 = alloca ptr, align 8
  %12 = alloca i32, align 4
  %13 = alloca %struct.bignum_st, align 8
  %14 = alloca [2 x i64], align 16
  store ptr %0, ptr %5, align 8, !tbaa !8
  store ptr %1, ptr %6, align 8, !tbaa !3
  store ptr %2, ptr %7, align 8, !tbaa !10
  call void @llvm.lifetime.start.p0(i64 4, ptr %8) #3
  call void @llvm.lifetime.start.p0(i64 4, ptr %9) #3
  store i32 0, ptr %9, align 4, !tbaa !12
  call void @llvm.lifetime.start.p0(i64 8, ptr %10) #3
  call void @llvm.lifetime.start.p0(i64 8, ptr %11) #3
  %15 = load ptr, ptr %6, align 8, !tbaa !3
  %16 = call i32 @BN_is_zero(ptr noundef %15)
  %17 = icmp ne i32 %16, 0
  br i1 %17, label %18, label %19

18:                                               ; preds = %3
  store i32 0, ptr %4, align 4
  store i32 1, ptr %12, align 4
  br label %202

19:                                               ; preds = %3
  %20 = load ptr, ptr %7, align 8, !tbaa !10
  call void @BN_CTX_start(ptr noundef %20)
  %21 = load ptr, ptr %7, align 8, !tbaa !10
  %22 = call ptr @BN_CTX_get(ptr noundef %21)
  store ptr %22, ptr %10, align 8, !tbaa !3
  %23 = icmp eq ptr %22, null
  br i1 %23, label %24, label %25

24:                                               ; preds = %19
  br label %199

25:                                               ; preds = %19
  %26 = load ptr, ptr %5, align 8, !tbaa !8
  %27 = getelementptr inbounds nuw %struct.bn_mont_ctx_st, ptr %26, i32 0, i32 1
  store ptr %27, ptr %11, align 8, !tbaa !3
  %28 = load ptr, ptr %5, align 8, !tbaa !8
  %29 = getelementptr inbounds nuw %struct.bn_mont_ctx_st, ptr %28, i32 0, i32 2
  %30 = load ptr, ptr %6, align 8, !tbaa !3
  %31 = call ptr @BN_copy(ptr noundef %29, ptr noundef %30)
  %32 = icmp ne ptr %31, null
  br i1 %32, label %34, label %33

33:                                               ; preds = %25
  br label %199

34:                                               ; preds = %25
  %35 = load ptr, ptr %6, align 8, !tbaa !3
  %36 = call i32 @BN_get_flags(ptr noundef %35, i32 noundef 4)
  %37 = icmp ne i32 %36, 0
  br i1 %37, label %38, label %41

38:                                               ; preds = %34
  %39 = load ptr, ptr %5, align 8, !tbaa !8
  %40 = getelementptr inbounds nuw %struct.bn_mont_ctx_st, ptr %39, i32 0, i32 2
  call void @BN_set_flags(ptr noundef %40, i32 noundef 4)
  br label %41

41:                                               ; preds = %38, %34
  %42 = load ptr, ptr %5, align 8, !tbaa !8
  %43 = getelementptr inbounds nuw %struct.bn_mont_ctx_st, ptr %42, i32 0, i32 2
  %44 = getelementptr inbounds nuw %struct.bignum_st, ptr %43, i32 0, i32 3
  store i32 0, ptr %44, align 8, !tbaa !32
  call void @llvm.lifetime.start.p0(i64 24, ptr %13) #3
  call void @llvm.lifetime.start.p0(i64 16, ptr %14) #3
  call void @bn_init(ptr noundef %13)
  %45 = getelementptr inbounds [2 x i64], ptr %14, i64 0, i64 0
  %46 = getelementptr inbounds nuw %struct.bignum_st, ptr %13, i32 0, i32 0
  store ptr %45, ptr %46, align 8, !tbaa !19
  %47 = getelementptr inbounds nuw %struct.bignum_st, ptr %13, i32 0, i32 2
  store i32 2, ptr %47, align 4, !tbaa !33
  %48 = getelementptr inbounds nuw %struct.bignum_st, ptr %13, i32 0, i32 3
  store i32 0, ptr %48, align 8, !tbaa !21
  %49 = load ptr, ptr %6, align 8, !tbaa !3
  %50 = call i32 @BN_get_flags(ptr noundef %49, i32 noundef 4)
  %51 = icmp ne i32 %50, 0
  br i1 %51, label %52, label %53

52:                                               ; preds = %41
  call void @BN_set_flags(ptr noundef %13, i32 noundef 4)
  br label %53

53:                                               ; preds = %52, %41
  %54 = load ptr, ptr %6, align 8, !tbaa !3
  %55 = call i32 @BN_num_bits(ptr noundef %54)
  %56 = add nsw i32 %55, 63
  %57 = sdiv i32 %56, 64
  %58 = mul nsw i32 %57, 64
  %59 = load ptr, ptr %5, align 8, !tbaa !8
  %60 = getelementptr inbounds nuw %struct.bn_mont_ctx_st, ptr %59, i32 0, i32 0
  store i32 %58, ptr %60, align 8, !tbaa !31
  %61 = load ptr, ptr %11, align 8, !tbaa !3
  call void @BN_zero_ex(ptr noundef %61)
  %62 = load ptr, ptr %11, align 8, !tbaa !3
  %63 = call i32 @BN_set_bit(ptr noundef %62, i32 noundef 64)
  %64 = icmp ne i32 %63, 0
  br i1 %64, label %66, label %65

65:                                               ; preds = %53
  store i32 2, ptr %12, align 4
  br label %140

66:                                               ; preds = %53
  %67 = load ptr, ptr %6, align 8, !tbaa !3
  %68 = getelementptr inbounds nuw %struct.bignum_st, ptr %67, i32 0, i32 0
  %69 = load ptr, ptr %68, align 8, !tbaa !19
  %70 = getelementptr inbounds i64, ptr %69, i64 0
  %71 = load i64, ptr %70, align 8, !tbaa !24
  %72 = getelementptr inbounds [2 x i64], ptr %14, i64 0, i64 0
  store i64 %71, ptr %72, align 16, !tbaa !24
  %73 = getelementptr inbounds [2 x i64], ptr %14, i64 0, i64 1
  store i64 0, ptr %73, align 8, !tbaa !24
  %74 = getelementptr inbounds [2 x i64], ptr %14, i64 0, i64 0
  %75 = load i64, ptr %74, align 16, !tbaa !24
  %76 = icmp ne i64 %75, 0
  %77 = select i1 %76, i32 1, i32 0
  %78 = getelementptr inbounds nuw %struct.bignum_st, ptr %13, i32 0, i32 1
  store i32 %77, ptr %78, align 8, !tbaa !18
  %79 = call i32 @BN_is_one(ptr noundef %13)
  %80 = icmp ne i32 %79, 0
  br i1 %80, label %81, label %83

81:                                               ; preds = %66
  %82 = load ptr, ptr %10, align 8, !tbaa !3
  call void @BN_zero_ex(ptr noundef %82)
  br label %91

83:                                               ; preds = %66
  %84 = load ptr, ptr %10, align 8, !tbaa !3
  %85 = load ptr, ptr %11, align 8, !tbaa !3
  %86 = load ptr, ptr %7, align 8, !tbaa !10
  %87 = call ptr @BN_mod_inverse(ptr noundef %84, ptr noundef %85, ptr noundef %13, ptr noundef %86)
  %88 = icmp eq ptr %87, null
  br i1 %88, label %89, label %90

89:                                               ; preds = %83
  store i32 2, ptr %12, align 4
  br label %140

90:                                               ; preds = %83
  br label %91

91:                                               ; preds = %90, %81
  %92 = load ptr, ptr %10, align 8, !tbaa !3
  %93 = load ptr, ptr %10, align 8, !tbaa !3
  %94 = call i32 @BN_lshift(ptr noundef %92, ptr noundef %93, i32 noundef 64)
  %95 = icmp ne i32 %94, 0
  br i1 %95, label %97, label %96

96:                                               ; preds = %91
  store i32 2, ptr %12, align 4
  br label %140

97:                                               ; preds = %91
  %98 = load ptr, ptr %10, align 8, !tbaa !3
  %99 = call i32 @BN_is_zero(ptr noundef %98)
  %100 = icmp ne i32 %99, 0
  br i1 %100, label %107, label %101

101:                                              ; preds = %97
  %102 = load ptr, ptr %10, align 8, !tbaa !3
  %103 = call i32 @BN_sub_word(ptr noundef %102, i64 noundef 1)
  %104 = icmp ne i32 %103, 0
  br i1 %104, label %106, label %105

105:                                              ; preds = %101
  store i32 2, ptr %12, align 4
  br label %140

106:                                              ; preds = %101
  br label %113

107:                                              ; preds = %97
  %108 = load ptr, ptr %10, align 8, !tbaa !3
  %109 = call i32 @BN_set_word(ptr noundef %108, i64 noundef -1)
  %110 = icmp ne i32 %109, 0
  br i1 %110, label %112, label %111

111:                                              ; preds = %107
  store i32 2, ptr %12, align 4
  br label %140

112:                                              ; preds = %107
  br label %113

113:                                              ; preds = %112, %106
  %114 = load ptr, ptr %10, align 8, !tbaa !3
  %115 = load ptr, ptr %10, align 8, !tbaa !3
  %116 = load ptr, ptr %7, align 8, !tbaa !10
  %117 = call i32 @BN_div(ptr noundef %114, ptr noundef null, ptr noundef %115, ptr noundef %13, ptr noundef %116)
  %118 = icmp ne i32 %117, 0
  br i1 %118, label %120, label %119

119:                                              ; preds = %113
  store i32 2, ptr %12, align 4
  br label %140

120:                                              ; preds = %113
  %121 = load ptr, ptr %10, align 8, !tbaa !3
  %122 = getelementptr inbounds nuw %struct.bignum_st, ptr %121, i32 0, i32 1
  %123 = load i32, ptr %122, align 8, !tbaa !18
  %124 = icmp sgt i32 %123, 0
  br i1 %124, label %125, label %131

125:                                              ; preds = %120
  %126 = load ptr, ptr %10, align 8, !tbaa !3
  %127 = getelementptr inbounds nuw %struct.bignum_st, ptr %126, i32 0, i32 0
  %128 = load ptr, ptr %127, align 8, !tbaa !19
  %129 = getelementptr inbounds i64, ptr %128, i64 0
  %130 = load i64, ptr %129, align 8, !tbaa !24
  br label %132

131:                                              ; preds = %120
  br label %132

132:                                              ; preds = %131, %125
  %133 = phi i64 [ %130, %125 ], [ 0, %131 ]
  %134 = load ptr, ptr %5, align 8, !tbaa !8
  %135 = getelementptr inbounds nuw %struct.bn_mont_ctx_st, ptr %134, i32 0, i32 4
  %136 = getelementptr inbounds [2 x i64], ptr %135, i64 0, i64 0
  store i64 %133, ptr %136, align 8, !tbaa !24
  %137 = load ptr, ptr %5, align 8, !tbaa !8
  %138 = getelementptr inbounds nuw %struct.bn_mont_ctx_st, ptr %137, i32 0, i32 4
  %139 = getelementptr inbounds [2 x i64], ptr %138, i64 0, i64 1
  store i64 0, ptr %139, align 8, !tbaa !24
  store i32 0, ptr %12, align 4
  br label %140

140:                                              ; preds = %119, %111, %105, %96, %89, %65, %132
  call void @llvm.lifetime.end.p0(i64 16, ptr %14) #3
  call void @llvm.lifetime.end.p0(i64 24, ptr %13) #3
  %141 = load i32, ptr %12, align 4
  switch i32 %141, label %202 [
    i32 0, label %142
    i32 2, label %199
  ]

142:                                              ; preds = %140
  %143 = load ptr, ptr %5, align 8, !tbaa !8
  %144 = getelementptr inbounds nuw %struct.bn_mont_ctx_st, ptr %143, i32 0, i32 1
  call void @BN_zero_ex(ptr noundef %144)
  %145 = load ptr, ptr %5, align 8, !tbaa !8
  %146 = getelementptr inbounds nuw %struct.bn_mont_ctx_st, ptr %145, i32 0, i32 1
  %147 = load ptr, ptr %5, align 8, !tbaa !8
  %148 = getelementptr inbounds nuw %struct.bn_mont_ctx_st, ptr %147, i32 0, i32 0
  %149 = load i32, ptr %148, align 8, !tbaa !31
  %150 = mul nsw i32 %149, 2
  %151 = call i32 @BN_set_bit(ptr noundef %146, i32 noundef %150)
  %152 = icmp ne i32 %151, 0
  br i1 %152, label %154, label %153

153:                                              ; preds = %142
  br label %199

154:                                              ; preds = %142
  %155 = load ptr, ptr %5, align 8, !tbaa !8
  %156 = getelementptr inbounds nuw %struct.bn_mont_ctx_st, ptr %155, i32 0, i32 1
  %157 = load ptr, ptr %5, align 8, !tbaa !8
  %158 = getelementptr inbounds nuw %struct.bn_mont_ctx_st, ptr %157, i32 0, i32 1
  %159 = load ptr, ptr %5, align 8, !tbaa !8
  %160 = getelementptr inbounds nuw %struct.bn_mont_ctx_st, ptr %159, i32 0, i32 2
  %161 = load ptr, ptr %7, align 8, !tbaa !10
  %162 = call i32 @BN_div(ptr noundef null, ptr noundef %156, ptr noundef %158, ptr noundef %160, ptr noundef %161)
  %163 = icmp ne i32 %162, 0
  br i1 %163, label %165, label %164

164:                                              ; preds = %154
  br label %199

165:                                              ; preds = %154
  %166 = load ptr, ptr %5, align 8, !tbaa !8
  %167 = getelementptr inbounds nuw %struct.bn_mont_ctx_st, ptr %166, i32 0, i32 1
  %168 = getelementptr inbounds nuw %struct.bignum_st, ptr %167, i32 0, i32 1
  %169 = load i32, ptr %168, align 8, !tbaa !34
  store i32 %169, ptr %8, align 4, !tbaa !12
  %170 = load ptr, ptr %5, align 8, !tbaa !8
  %171 = getelementptr inbounds nuw %struct.bn_mont_ctx_st, ptr %170, i32 0, i32 2
  %172 = getelementptr inbounds nuw %struct.bignum_st, ptr %171, i32 0, i32 1
  %173 = load i32, ptr %172, align 8, !tbaa !14
  store i32 %173, ptr %9, align 4, !tbaa !12
  br label %174

174:                                              ; preds = %186, %165
  %175 = load i32, ptr %8, align 4, !tbaa !12
  %176 = load i32, ptr %9, align 4, !tbaa !12
  %177 = icmp slt i32 %175, %176
  br i1 %177, label %178, label %189

178:                                              ; preds = %174
  %179 = load ptr, ptr %5, align 8, !tbaa !8
  %180 = getelementptr inbounds nuw %struct.bn_mont_ctx_st, ptr %179, i32 0, i32 1
  %181 = getelementptr inbounds nuw %struct.bignum_st, ptr %180, i32 0, i32 0
  %182 = load ptr, ptr %181, align 8, !tbaa !35
  %183 = load i32, ptr %8, align 4, !tbaa !12
  %184 = sext i32 %183 to i64
  %185 = getelementptr inbounds i64, ptr %182, i64 %184
  store i64 0, ptr %185, align 8, !tbaa !24
  br label %186

186:                                              ; preds = %178
  %187 = load i32, ptr %8, align 4, !tbaa !12
  %188 = add nsw i32 %187, 1
  store i32 %188, ptr %8, align 4, !tbaa !12
  br label %174, !llvm.loop !36

189:                                              ; preds = %174
  %190 = load i32, ptr %9, align 4, !tbaa !12
  %191 = load ptr, ptr %5, align 8, !tbaa !8
  %192 = getelementptr inbounds nuw %struct.bn_mont_ctx_st, ptr %191, i32 0, i32 1
  %193 = getelementptr inbounds nuw %struct.bignum_st, ptr %192, i32 0, i32 1
  store i32 %190, ptr %193, align 8, !tbaa !34
  %194 = load ptr, ptr %5, align 8, !tbaa !8
  %195 = getelementptr inbounds nuw %struct.bn_mont_ctx_st, ptr %194, i32 0, i32 1
  %196 = getelementptr inbounds nuw %struct.bignum_st, ptr %195, i32 0, i32 4
  %197 = load i32, ptr %196, align 4, !tbaa !37
  %198 = or i32 %197, 0
  store i32 %198, ptr %196, align 4, !tbaa !37
  store i32 1, ptr %9, align 4, !tbaa !12
  br label %199

199:                                              ; preds = %189, %140, %164, %153, %33, %24
  %200 = load ptr, ptr %7, align 8, !tbaa !10
  call void @BN_CTX_end(ptr noundef %200)
  %201 = load i32, ptr %9, align 4, !tbaa !12
  store i32 %201, ptr %4, align 4
  store i32 1, ptr %12, align 4
  br label %202

202:                                              ; preds = %199, %140, %18
  call void @llvm.lifetime.end.p0(i64 8, ptr %11) #3
  call void @llvm.lifetime.end.p0(i64 8, ptr %10) #3
  call void @llvm.lifetime.end.p0(i64 4, ptr %9) #3
  call void @llvm.lifetime.end.p0(i64 4, ptr %8) #3
  %203 = load i32, ptr %4, align 4
  ret i32 %203
}