; Function Attrs: nounwind uwtable
define range(i32 0, 2) i32 @BN_MONT_CTX_set(ptr noundef %0, ptr noundef %1, ptr noundef %2) local_unnamed_addr #0 {
  %4 = alloca %struct.bignum_st, align 8
  %5 = alloca [2 x i64], align 16
  %6 = tail call i32 @BN_is_zero(ptr noundef %1) #5
  %.not = icmp eq i32 %6, 0
  br i1 %.not, label %7, label %81

7:                                                ; preds = %3
  tail call void @BN_CTX_start(ptr noundef %2) #5
  %8 = tail call ptr @BN_CTX_get(ptr noundef %2) #5
  %9 = icmp eq ptr %8, null
  br i1 %9, label %80, label %10

10:                                               ; preds = %7
  %11 = getelementptr inbounds nuw i8, ptr %0, i64 8
  %12 = getelementptr inbounds nuw i8, ptr %0, i64 32
  %13 = tail call ptr @BN_copy(ptr noundef nonnull %12, ptr noundef %1) #5
  %.not56 = icmp eq ptr %13, null
  br i1 %.not56, label %80, label %14

14:                                               ; preds = %10
  %15 = tail call i32 @BN_get_flags(ptr noundef %1, i32 noundef 4) #5
  %.not57 = icmp eq i32 %15, 0
  br i1 %.not57, label %17, label %16

16:                                               ; preds = %14
  tail call void @BN_set_flags(ptr noundef nonnull %12, i32 noundef 4) #5
  br label %17

17:                                               ; preds = %16, %14
  %18 = getelementptr inbounds nuw i8, ptr %0, i64 48
  store i32 0, ptr %18, align 8, !tbaa !23
  call void @llvm.lifetime.start.p0(i64 24, ptr nonnull %4) #5
  call void @llvm.lifetime.start.p0(i64 16, ptr nonnull %5) #5
  call void @bn_init(ptr noundef nonnull %4) #5
  store ptr %5, ptr %4, align 8, !tbaa !12
  %19 = getelementptr inbounds nuw i8, ptr %4, i64 12
  store i32 2, ptr %19, align 4, !tbaa !24
  %20 = getelementptr inbounds nuw i8, ptr %4, i64 16
  store i32 0, ptr %20, align 8, !tbaa !14
  %21 = call i32 @BN_get_flags(ptr noundef %1, i32 noundef 4) #5
  %.not58 = icmp eq i32 %21, 0
  br i1 %.not58, label %23, label %22

22:                                               ; preds = %17
  call void @BN_set_flags(ptr noundef nonnull %4, i32 noundef 4) #5
  br label %23

23:                                               ; preds = %22, %17
  %24 = call i32 @BN_num_bits(ptr noundef %1) #5
  %25 = add nsw i32 %24, 63
  %26 = sdiv i32 %25, 64
  %27 = shl nsw i32 %26, 6
  store i32 %27, ptr %0, align 8, !tbaa !21
  call void @BN_zero_ex(ptr noundef nonnull %11) #5
  %28 = call i32 @BN_set_bit(ptr noundef nonnull %11, i32 noundef 64) #5
  %.not59 = icmp eq i32 %28, 0
  br i1 %.not59, label %.thread, label %29

29:                                               ; preds = %23
  %30 = load ptr, ptr %1, align 8, !tbaa !12
  %31 = load i64, ptr %30, align 8, !tbaa !15
  store i64 %31, ptr %5, align 16, !tbaa !15
  %32 = getelementptr inbounds nuw i8, ptr %5, i64 8
  store i64 0, ptr %32, align 8, !tbaa !15
  %.not60 = icmp ne i64 %31, 0
  %33 = zext i1 %.not60 to i32
  %34 = getelementptr inbounds nuw i8, ptr %4, i64 8
  store i32 %33, ptr %34, align 8, !tbaa !11
  %35 = call i32 @BN_is_one(ptr noundef nonnull %4) #5
  %.not61 = icmp eq i32 %35, 0
  br i1 %.not61, label %37, label %36

36:                                               ; preds = %29
  call void @BN_zero_ex(ptr noundef nonnull %8) #5
  br label %40

37:                                               ; preds = %29
  %38 = call ptr @BN_mod_inverse(ptr noundef nonnull %8, ptr noundef nonnull %11, ptr noundef nonnull %4, ptr noundef %2) #5
  %39 = icmp eq ptr %38, null
  br i1 %39, label %.thread, label %40

40:                                               ; preds = %37, %36
  %41 = call i32 @BN_lshift(ptr noundef nonnull %8, ptr noundef nonnull %8, i32 noundef 64) #5
  %.not62 = icmp eq i32 %41, 0
  br i1 %.not62, label %.thread, label %42

42:                                               ; preds = %40
  %43 = call i32 @BN_is_zero(ptr noundef nonnull %8) #5
  %.not63 = icmp eq i32 %43, 0
  br i1 %.not63, label %44, label %46

44:                                               ; preds = %42
  %45 = call i32 @BN_sub_word(ptr noundef nonnull %8, i64 noundef 1) #5
  %.not64 = icmp eq i32 %45, 0
  br i1 %.not64, label %.thread, label %48

46:                                               ; preds = %42
  %47 = call i32 @BN_set_word(ptr noundef nonnull %8, i64 noundef -1) #5
  %.not65 = icmp eq i32 %47, 0
  br i1 %.not65, label %.thread, label %48

48:                                               ; preds = %46, %44
  %49 = call i32 @BN_div(ptr noundef nonnull %8, ptr noundef null, ptr noundef nonnull %8, ptr noundef nonnull %4, ptr noundef %2) #5
  %.not66 = icmp eq i32 %49, 0
  br i1 %.not66, label %.thread, label %50

50:                                               ; preds = %48
  %51 = getelementptr inbounds nuw i8, ptr %8, i64 8
  %52 = load i32, ptr %51, align 8, !tbaa !11
  %53 = icmp sgt i32 %52, 0
  br i1 %53, label %54, label %57

54:                                               ; preds = %50
  %55 = load ptr, ptr %8, align 8, !tbaa !12
  %56 = load i64, ptr %55, align 8, !tbaa !15
  br label %57

.thread:                                          ; preds = %23, %37, %40, %44, %46, %48
  call void @llvm.lifetime.end.p0(i64 16, ptr nonnull %5) #5
  call void @llvm.lifetime.end.p0(i64 24, ptr nonnull %4) #5
  br label %80

57:                                               ; preds = %50, %54
  %58 = phi i64 [ %56, %54 ], [ 0, %50 ]
  %59 = getelementptr inbounds nuw i8, ptr %0, i64 80
  store i64 %58, ptr %59, align 8, !tbaa !15
  %60 = getelementptr inbounds nuw i8, ptr %0, i64 88
  store i64 0, ptr %60, align 8, !tbaa !15
  call void @llvm.lifetime.end.p0(i64 16, ptr nonnull %5) #5
  call void @llvm.lifetime.end.p0(i64 24, ptr nonnull %4) #5
  call void @BN_zero_ex(ptr noundef nonnull %11) #5
  %61 = load i32, ptr %0, align 8, !tbaa !21
  %62 = shl nsw i32 %61, 1
  %63 = call i32 @BN_set_bit(ptr noundef nonnull %11, i32 noundef %62) #5
  %.not67 = icmp eq i32 %63, 0
  br i1 %.not67, label %80, label %64

64:                                               ; preds = %57
  %65 = call i32 @BN_div(ptr noundef null, ptr noundef nonnull %11, ptr noundef nonnull %11, ptr noundef nonnull %12, ptr noundef %2) #5
  %.not68 = icmp eq i32 %65, 0
  br i1 %.not68, label %80, label %66

66:                                               ; preds = %64
  %67 = getelementptr inbounds nuw i8, ptr %0, i64 16
  %68 = load i32, ptr %67, align 8, !tbaa !25
  %69 = getelementptr inbounds nuw i8, ptr %0, i64 40
  %70 = load i32, ptr %69, align 8, !tbaa !3
  %71 = icmp slt i32 %68, %70
  br i1 %71, label %.lr.ph, label %._crit_edge

.lr.ph:                                           ; preds = %66
  %72 = load ptr, ptr %11, align 8, !tbaa !26
  %73 = sext i32 %68 to i64
  %74 = shl nsw i64 %73, 3
  %scevgep = getelementptr i8, ptr %72, i64 %74
  %75 = xor i32 %68, -1
  %76 = add i32 %70, %75
  %77 = zext i32 %76 to i64
  %78 = shl nuw nsw i64 %77, 3
  %79 = add nuw nsw i64 %78, 8
  call void @llvm.memset.p0.i64(ptr noundef nonnull align 8 dereferenceable(1) %scevgep, i8 0, i64 %79, i1 false), !tbaa !15
  br label %._crit_edge

._crit_edge:                                      ; preds = %.lr.ph, %66
  store i32 %70, ptr %67, align 8, !tbaa !25
  br label %80

80:                                               ; preds = %.thread, %64, %57, %10, %7, %._crit_edge
  %.053 = phi i32 [ 0, %7 ], [ 1, %._crit_edge ], [ 0, %64 ], [ 0, %57 ], [ 0, %10 ], [ 0, %.thread ]
  call void @BN_CTX_end(ptr noundef %2) #5
  br label %81

81:                                               ; preds = %3, %80
  %.051 = phi i32 [ %.053, %80 ], [ 0, %3 ]
  ret i32 %.051
}